target datalayout = "e-m:e-p270:32:32-p271:32:32-p272:64:64-i64:64-i128:128-f80:128-n8:16:32:64-S128"
target triple = "x86_64-pc-linux-gnu"

%struct.jv = type { i8, i8, i16, i32, %union.anon }
%union.anon = type { ptr }
%struct.jv_refcnt = type { i32 }
%struct.jvp_string = type { %struct.jv_refcnt, i32, i32, i32, [0 x i8] }

; Function Attrs: nounwind uwtable
define internal i32 @jvp_string_length(ptr noundef %0) #0 {
  %2 = alloca ptr, align 8
  store ptr %0, ptr %2, align 8, !tbaa !14
  %3 = load ptr, ptr %2, align 8, !tbaa !14
  %4 = getelementptr inbounds nuw %struct.jvp_string, ptr %3, i32 0, i32 2
  %5 = load i32, ptr %4, align 4, !tbaa !10
  %6 = lshr i32 %5, 1
  ret i32 %6
}

; Function Attrs: nounwind uwtable
define internal void @jvp_refcnt_inc(ptr noundef %0) #0 {
  %2 = alloca ptr, align 8
  store ptr %0, ptr %2, align 8, !tbaa !83
  %3 = load ptr, ptr %2, align 8, !tbaa !83
  %4 = getelementptr inbounds nuw %struct.jv_refcnt, ptr %3, i32 0, i32 0
  %5 = load i32, ptr %4, align 4, !tbaa !68
  %6 = add nsw i32 %5, 1
  store i32 %6, ptr %4, align 4, !tbaa !68
  ret void
}

; Function Attrs: nounwind uwtable
define internal ptr @jvp_string_ptr(i64 %0, ptr %1) #0 {
  %3 = alloca %struct.jv, align 8
  %4 = getelementptr inbounds nuw { i64, ptr }, ptr %3, i32 0, i32 0
  store i64 %0, ptr %4, align 8
  %5 = getelementptr inbounds nuw { i64, ptr }, ptr %3, i32 0, i32 1
  store ptr %1, ptr %5, align 8
  %6 = getelementptr inbounds nuw %struct.jv, ptr %3, i32 0, i32 4
  %7 = load ptr, ptr %6, align 8, !tbaa !12
  ret ptr %7
}

; Function Attrs: nounwind uwtable
define dso_local i32 @jv_string_length_bytes(i64 %0, ptr %1) #0 {
  %3 = alloca %struct.jv, align 8
  %4 = alloca i32, align 4
  %5 = getelementptr inbounds nuw { i64, ptr }, ptr %3, i32 0, i32 0
  store i64 %0, ptr %5, align 8
  %6 = getelementptr inbounds nuw { i64, ptr }, ptr %3, i32 0, i32 1
  store ptr %1, ptr %6, align 8
  call void @llvm.lifetime.start.p0(i64 4, ptr %4) #11
  %7 = getelementptr inbounds nuw { i64, ptr }, ptr %3, i32 0, i32 0
  %8 = load i64, ptr %7, align 8
  %9 = getelementptr inbounds nuw { i64, ptr }, ptr %3, i32 0, i32 1
  %10 = load ptr, ptr %9, align 8
  %11 = call ptr @jvp_string_ptr(i64 %8, ptr %10)
  %12 = call i32 @jvp_string_length(ptr noundef %11)
  store i32 %12, ptr %4, align 4, !tbaa !10
  %13 = getelementptr inbounds nuw { i64, ptr }, ptr %3, i32 0, i32 0
  %14 = load i64, ptr %13, align 8
  %15 = getelementptr inbounds nuw { i64, ptr }, ptr %3, i32 0, i32 1
  %16 = load ptr, ptr %15, align 8
  call void @jv_free(i64 %14, ptr %16)
  %17 = load i32, ptr %4, align 4, !tbaa !10
  call void @llvm.lifetime.end.p0(i64 4, ptr %4) #11
  ret i32 %17
}

; Function Attrs: nounwind uwtable
define dso_local { i64, ptr } @jv_copy(i64 %0, ptr %1) #0 {
  %3 = alloca %struct.jv, align 8
  %4 = alloca %struct.jv, align 8
  %5 = getelementptr inbounds nuw { i64, ptr }, ptr %4, i32 0, i32 0
  store i64 %0, ptr %5, align 8
  %6 = getelementptr inbounds nuw { i64, ptr }, ptr %4, i32 0, i32 1
  store ptr %1, ptr %6, align 8
  %7 = getelementptr inbounds nuw %struct.jv, ptr %4, i32 0, i32 0
  %8 = load i8, ptr %7, align 8, !tbaa !4
  %9 = zext i8 %8 to i32
  %10 = and i32 %9, 128
  %11 = icmp ne i32 %10, 0
  br i1 %11, label %12, label %15

12:                                               ; preds = %2
  %13 = getelementptr inbounds nuw %struct.jv, ptr %4, i32 0, i32 4
  %14 = load ptr, ptr %13, align 8, !tbaa !12
  call void @jvp_refcnt_inc(ptr noundef %14)
  br label %15

15:                                               ; preds = %12, %2
  call void @llvm.memcpy.p0.p0.i64(ptr align 8 %3, ptr align 8 %4, i64 16, i1 false), !tbaa.struct !11
  %16 = load { i64, ptr }, ptr %3, align 8
  ret { i64, ptr } %16
}

; Function Attrs: nounwind uwtable
define dso_local ptr @jv_string_value(i64 %0, ptr %1) #0 {
  %3 = alloca %struct.jv, align 8
  %4 = getelementptr inbounds nuw { i64, ptr }, ptr %3, i32 0, i32 0
  store i64 %0, ptr %4, align 8
  %5 = getelementptr inbounds nuw { i64, ptr }, ptr %3, i32 0, i32 1
  store ptr %1, ptr %5, align 8
  %6 = getelementptr inbounds nuw { i64, ptr }, ptr %3, i32 0, i32 0
  %7 = load i64, ptr %6, align 8
  %8 = getelementptr inbounds nuw { i64, ptr }, ptr %3, i32 0, i32 1
  %9 = load ptr, ptr %8, align 8
  %10 = call ptr @jvp_string_ptr(i64 %7, ptr %9)
  %11 = getelementptr inbounds nuw %struct.jvp_string, ptr %10, i32 0, i32 4
  %12 = getelementptr inbounds [0 x i8], ptr %11, i64 0, i64 0
  ret ptr %12
}

; Function Attrs: nounwind uwtable
define dso_local i32 @jv_string_length_codepoints(i64 %0, ptr %1) #0 {
  %3 = alloca %struct.jv, align 8
  %4 = alloca ptr, align 8
  %5 = alloca ptr, align 8
  %6 = alloca %struct.jv, align 8
  %7 = alloca i32, align 4
  %8 = alloca i32, align 4
  %9 = getelementptr inbounds nuw { i64, ptr }, ptr %3, i32 0, i32 0
  store i64 %0, ptr %9, align 8
  %10 = getelementptr inbounds nuw { i64, ptr }, ptr %3, i32 0, i32 1
  store ptr %1, ptr %10, align 8
  call void @llvm.lifetime.start.p0(i64 8, ptr %4) #11
  %11 = getelementptr inbounds nuw { i64, ptr }, ptr %3, i32 0, i32 0
  %12 = load i64, ptr %11, align 8
  %13 = getelementptr inbounds nuw { i64, ptr }, ptr %3, i32 0, i32 1
  %14 = load ptr, ptr %13, align 8
  %15 = call ptr @jv_string_value(i64 %12, ptr %14)
  store ptr %15, ptr %4, align 8, !tbaa !30
  call void @llvm.lifetime.start.p0(i64 8, ptr %5) #11
  %16 = load ptr, ptr %4, align 8, !tbaa !30
  %17 = getelementptr inbounds nuw { i64, ptr }, ptr %3, i32 0, i32 0
  %18 = load i64, ptr %17, align 8
  %19 = getelementptr inbounds nuw { i64, ptr }, ptr %3, i32 0, i32 1
  %20 = load ptr, ptr %19, align 8
  %21 = call { i64, ptr } @jv_copy(i64 %18, ptr %20)
  %22 = getelementptr inbounds nuw { i64, ptr }, ptr %6, i32 0, i32 0
  %23 = extractvalue { i64, ptr } %21, 0
  store i64 %23, ptr %22, align 8
  %24 = getelementptr inbounds nuw { i64, ptr }, ptr %6, i32 0, i32 1
  %25 = extractvalue { i64, ptr } %21, 1
  store ptr %25, ptr %24, align 8
  %26 = getelementptr inbounds nuw { i64, ptr }, ptr %6, i32 0, i32 0
  %27 = load i64, ptr %26, align 8
  %28 = getelementptr inbounds nuw { i64, ptr }, ptr %6, i32 0, i32 1
  %29 = load ptr, ptr %28, align 8
  %30 = call i32 @jv_string_length_bytes(i64 %27, ptr %29)
  %31 = sext i32 %30 to i64
  %32 = getelementptr inbounds i8, ptr %16, i64 %31
  store ptr %32, ptr %5, align 8, !tbaa !30
  call void @llvm.lifetime.start.p0(i64 4, ptr %7) #11
  store i32 0, ptr %7, align 4, !tbaa !10
  call void @llvm.lifetime.start.p0(i64 4, ptr %8) #11
  store i32 0, ptr %8, align 4, !tbaa !10
  br label %33

33:                                               ; preds = %38, %2
  %34 = load ptr, ptr %4, align 8, !tbaa !30
  %35 = load ptr, ptr %5, align 8, !tbaa !30
  %36 = call ptr @jvp_utf8_next(ptr noundef %34, ptr noundef %35, ptr noundef %7)
  store ptr %36, ptr %4, align 8, !tbaa !30
  %37 = icmp ne ptr %36, null
  br i1 %37, label %38, label %41

38:                                               ; preds = %33
  %39 = load i32, ptr %8, align 4, !tbaa !10
  %40 = add nsw i32 %39, 1
  store i32 %40, ptr %8, align 4, !tbaa !10
  br label %33, !llvm.loop !56

41:                                               ; preds = %33
  %42 = getelementptr inbounds nuw { i64, ptr }, ptr %3, i32 0, i32 0
  %43 = load i64, ptr %42, align 8
  %44 = getelementptr inbounds nuw { i64, ptr }, ptr %3, i32 0, i32 1
  %45 = load ptr, ptr %44, align 8
  call void @jv_free(i64 %43, ptr %45)
  %46 = load i32, ptr %8, align 4, !tbaa !10
  call void @llvm.lifetime.end.p0(i64 4, ptr %8) #11
  call void @llvm.lifetime.end.p0(i64 4, ptr %7) #11
  call void @llvm.lifetime.end.p0(i64 8, ptr %5) #11
  call void @llvm.lifetime.end.p0(i64 8, ptr %4) #11
  ret i32 %46
}