; Function Attrs: nounwind uwtable
define dso_local i32 @jv_string_length_codepoints(i64 %0, ptr %1) local_unnamed_addr #2 {
  %3 = alloca i32, align 4
  %4 = getelementptr inbounds nuw i8, ptr %1, i64 16
  %5 = and i64 %0, 128
  %.not.i = icmp eq i64 %5, 0
  br i1 %.not.i, label %jv_copy.exit, label %6

6:                                                ; preds = %2
  %7 = load i32, ptr %1, align 4, !tbaa !9
  %8 = add nsw i32 %7, 1
  store i32 %8, ptr %1, align 4, !tbaa !9
  br label %jv_copy.exit

jv_copy.exit:                                     ; preds = %2, %6
  %9 = getelementptr i8, ptr %1, i64 8
  %.val.i = load i32, ptr %9, align 4, !tbaa !4
  %10 = lshr i32 %.val.i, 1
  tail call void @jv_free(i64 %0, ptr %1)
  %11 = zext nneg i32 %10 to i64
  %12 = getelementptr inbounds nuw i8, ptr %4, i64 %11
  call void @llvm.lifetime.start.p0(i64 4, ptr nonnull %3) #25
  store i32 0, ptr %3, align 4, !tbaa !4
  br label %13

13:                                               ; preds = %13, %jv_copy.exit
  %.09 = phi ptr [ %4, %jv_copy.exit ], [ %14, %13 ]
  %.0 = phi i32 [ 0, %jv_copy.exit ], [ %15, %13 ]
  %14 = call ptr @jvp_utf8_next(ptr noundef nonnull %.09, ptr noundef nonnull %12, ptr noundef nonnull %3) #25
  %.not = icmp eq ptr %14, null
  %15 = add nuw nsw i32 %.0, 1
  br i1 %.not, label %16, label %13, !llvm.loop !48

16:                                               ; preds = %13
  call void @jv_free(i64 %0, ptr nonnull %1)
  call void @llvm.lifetime.end.p0(i64 4, ptr nonnull %3) #25
  ret i32 %.0
}